target datalayout = "e-m:e-p270:32:32-p271:32:32-p272:64:64-i64:64-i128:128-f80:128-n8:16:32:64-S128"
target triple = "x86_64-unknown-linux-gnu"

%struct.QEnumLookup = type { ptr, ptr, i32 }

@.str = private unnamed_addr constant [28 x i8] c"../qemu/crypto/block-luks.c\00", align 1
@__func__.qcrypto_block_luks_essiv_cipher = private unnamed_addr constant [32 x i8] c"qcrypto_block_luks_essiv_cipher\00", align 1
@.str.27 = private unnamed_addr constant [42 x i8] c"No AES cipher with key size %zu available\00", align 1
@.str.28 = private unnamed_addr constant [46 x i8] c"No Serpent cipher with key size %zu available\00", align 1
@.str.29 = private unnamed_addr constant [46 x i8] c"No Twofish cipher with key size %zu available\00", align 1
@.str.30 = private unnamed_addr constant [35 x i8] c"Cipher %s not supported with essiv\00", align 1
@QCryptoCipherAlgorithm_lookup = external constant %struct.QEnumLookup, align 8

; Function Attrs: nounwind sspstrong uwtable
define internal i32 @qcrypto_block_luks_essiv_cipher(i32 noundef %cipher, i32 noundef %hash, ptr noundef %errp) #0 {
entry:
  %retval = alloca i32, align 4
  %cipher.addr = alloca i32, align 4
  %hash.addr = alloca i32, align 4
  %errp.addr = alloca ptr, align 8
  %digestlen = alloca i64, align 8
  %keylen = alloca i64, align 8
  store i32 %cipher, ptr %cipher.addr, align 4
  store i32 %hash, ptr %hash.addr, align 4
  store ptr %errp, ptr %errp.addr, align 8
  %0 = load i32, ptr %hash.addr, align 4
  %call = call i64 @qcrypto_hash_digest_len(i32 noundef %0)
  store i64 %call, ptr %digestlen, align 8
  %1 = load i32, ptr %cipher.addr, align 4
  %call1 = call i64 @qcrypto_cipher_get_key_len(i32 noundef %1)
  store i64 %call1, ptr %keylen, align 8
  %2 = load i64, ptr %digestlen, align 8
  %3 = load i64, ptr %keylen, align 8
  %cmp = icmp eq i64 %2, %3
  br i1 %cmp, label %if.then, label %if.end

if.then:                                          ; preds = %entry
  %4 = load i32, ptr %cipher.addr, align 4
  store i32 %4, ptr %retval, align 4
  br label %return

if.end:                                           ; preds = %entry
  %5 = load i32, ptr %cipher.addr, align 4
  switch i32 %5, label %sw.default [
    i32 0, label %sw.bb
    i32 1, label %sw.bb
    i32 2, label %sw.bb
    i32 6, label %sw.bb13
    i32 7, label %sw.bb13
    i32 8, label %sw.bb13
    i32 9, label %sw.bb26
    i32 10, label %sw.bb26
    i32 11, label %sw.bb26
  ]

sw.bb:                                            ; preds = %if.end, %if.end, %if.end
  %6 = load i64, ptr %digestlen, align 8
  %call2 = call i64 @qcrypto_cipher_get_key_len(i32 noundef 0)
  %cmp3 = icmp eq i64 %6, %call2
  br i1 %cmp3, label %if.then4, label %if.else

if.then4:                                         ; preds = %sw.bb
  store i32 0, ptr %retval, align 4
  br label %return

if.else:                                          ; preds = %sw.bb
  %7 = load i64, ptr %digestlen, align 8
  %call5 = call i64 @qcrypto_cipher_get_key_len(i32 noundef 1)
  %cmp6 = icmp eq i64 %7, %call5
  br i1 %cmp6, label %if.then7, label %if.else8

if.then7:                                         ; preds = %if.else
  store i32 1, ptr %retval, align 4
  br label %return

if.else8:                                         ; preds = %if.else
  %8 = load i64, ptr %digestlen, align 8
  %call9 = call i64 @qcrypto_cipher_get_key_len(i32 noundef 2)
  %cmp10 = icmp eq i64 %8, %call9
  br i1 %cmp10, label %if.then11, label %if.else12

if.then11:                                        ; preds = %if.else8
  store i32 2, ptr %retval, align 4
  br label %return

if.else12:                                        ; preds = %if.else8
  %9 = load ptr, ptr %errp.addr, align 8
  %10 = load i64, ptr %digestlen, align 8
  call void (ptr, ptr, i32, ptr, ptr, ...) @error_setg_internal(ptr noundef %9, ptr noundef @.str, i32 noundef 279, ptr noundef @__func__.qcrypto_block_luks_essiv_cipher, ptr noundef @.str.27, i64 noundef %10)
  store i32 0, ptr %retval, align 4
  br label %return

sw.bb13:                                          ; preds = %if.end, %if.end, %if.end
  %11 = load i64, ptr %digestlen, align 8
  %call14 = call i64 @qcrypto_cipher_get_key_len(i32 noundef 6)
  %cmp15 = icmp eq i64 %11, %call14
  br i1 %cmp15, label %if.then16, label %if.else17

if.then16:                                        ; preds = %sw.bb13
  store i32 6, ptr %retval, align 4
  br label %return

if.else17:                                        ; preds = %sw.bb13
  %12 = load i64, ptr %digestlen, align 8
  %call18 = call i64 @qcrypto_cipher_get_key_len(i32 noundef 7)
  %cmp19 = icmp eq i64 %12, %call18
  br i1 %cmp19, label %if.then20, label %if.else21

if.then20:                                        ; preds = %if.else17
  store i32 7, ptr %retval, align 4
  br label %return

if.else21:                                        ; preds = %if.else17
  %13 = load i64, ptr %digestlen, align 8
  %call22 = call i64 @qcrypto_cipher_get_key_len(i32 noundef 8)
  %cmp23 = icmp eq i64 %13, %call22
  br i1 %cmp23, label %if.then24, label %if.else25

if.then24:                                        ; preds = %if.else21
  store i32 8, ptr %retval, align 4
  br label %return

if.else25:                                        ; preds = %if.else21
  %14 = load ptr, ptr %errp.addr, align 8
  %15 = load i64, ptr %digestlen, align 8
  call void (ptr, ptr, i32, ptr, ptr, ...) @error_setg_internal(ptr noundef %14, ptr noundef @.str, i32 noundef 297, ptr noundef @__func__.qcrypto_block_luks_essiv_cipher, ptr noundef @.str.28, i64 noundef %15)
  store i32 0, ptr %retval, align 4
  br label %return

sw.bb26:                                          ; preds = %if.end, %if.end, %if.end
  %16 = load i64, ptr %digestlen, align 8
  %call27 = call i64 @qcrypto_cipher_get_key_len(i32 noundef 9)
  %cmp28 = icmp eq i64 %16, %call27
  br i1 %cmp28, label %if.then29, label %if.else30

if.then29:                                        ; preds = %sw.bb26
  store i32 9, ptr %retval, align 4
  br label %return

if.else30:                                        ; preds = %sw.bb26
  %17 = load i64, ptr %digestlen, align 8
  %call31 = call i64 @qcrypto_cipher_get_key_len(i32 noundef 10)
  %cmp32 = icmp eq i64 %17, %call31
  br i1 %cmp32, label %if.then33, label %if.else34

if.then33:                                        ; preds = %if.else30
  store i32 10, ptr %retval, align 4
  br label %return

if.else34:                                        ; preds = %if.else30
  %18 = load i64, ptr %digestlen, align 8
  %call35 = call i64 @qcrypto_cipher_get_key_len(i32 noundef 11)
  %cmp36 = icmp eq i64 %18, %call35
  br i1 %cmp36, label %if.then37, label %if.else38

if.then37:                                        ; preds = %if.else34
  store i32 11, ptr %retval, align 4
  br label %return

if.else38:                                        ; preds = %if.else34
  %19 = load ptr, ptr %errp.addr, align 8
  %20 = load i64, ptr %digestlen, align 8
  call void (ptr, ptr, i32, ptr, ptr, ...) @error_setg_internal(ptr noundef %19, ptr noundef @.str, i32 noundef 315, ptr noundef @__func__.qcrypto_block_luks_essiv_cipher, ptr noundef @.str.29, i64 noundef %20)
  store i32 0, ptr %retval, align 4
  br label %return

sw.default:                                       ; preds = %if.end
  %21 = load ptr, ptr %errp.addr, align 8
  %22 = load i32, ptr %cipher.addr, align 4
  %call39 = call ptr @qapi_enum_lookup(ptr noundef @QCryptoCipherAlgorithm_lookup, i32 noundef %22)
  call void (ptr, ptr, i32, ptr, ptr, ...) @error_setg_internal(ptr noundef %21, ptr noundef @.str, i32 noundef 321, ptr noundef @__func__.qcrypto_block_luks_essiv_cipher, ptr noundef @.str.30, ptr noundef %call39)
  store i32 0, ptr %retval, align 4
  br label %return

return:                                           ; preds = %sw.default, %if.else38, %if.then37, %if.then33, %if.then29, %if.else25, %if.then24, %if.then20, %if.then16, %if.else12, %if.then11, %if.then7, %if.then4, %if.then
  %23 = load i32, ptr %retval, align 4
  ret i32 %23
}