; Function Attrs: nounwind sspstrong uwtable
define internal fastcc noundef i32 @qcrypto_block_luks_essiv_cipher(i32 noundef %cipher, i32 noundef %hash, ptr noundef nonnull %errp) unnamed_addr #1 {
entry:
  %call = tail call i64 @qcrypto_hash_digest_len(i32 noundef %hash) #16
  %call1 = tail call i64 @qcrypto_cipher_get_key_len(i32 noundef %cipher) #16
  %cmp = icmp eq i64 %call, %call1
  br i1 %cmp, label %return, label %if.end

if.end:                                           ; preds = %entry
  switch i32 %cipher, label %sw.default [
    i32 0, label %sw.bb
    i32 1, label %sw.bb
    i32 2, label %sw.bb
    i32 6, label %sw.bb13
    i32 7, label %sw.bb13
    i32 8, label %sw.bb13
    i32 9, label %sw.bb26
    i32 10, label %sw.bb26
    i32 11, label %sw.bb26
  ]

sw.bb:                                            ; preds = %if.end, %if.end, %if.end
  %call2 = tail call i64 @qcrypto_cipher_get_key_len(i32 noundef 0) #16
  %cmp3 = icmp eq i64 %call, %call2
  br i1 %cmp3, label %return, label %if.else

if.else:                                          ; preds = %sw.bb
  %call5 = tail call i64 @qcrypto_cipher_get_key_len(i32 noundef 1) #16
  %cmp6 = icmp eq i64 %call, %call5
  br i1 %cmp6, label %return, label %if.else8

if.else8:                                         ; preds = %if.else
  %call9 = tail call i64 @qcrypto_cipher_get_key_len(i32 noundef 2) #16
  %cmp10 = icmp eq i64 %call, %call9
  br i1 %cmp10, label %return, label %if.else12

if.else12:                                        ; preds = %if.else8
  tail call void (ptr, ptr, i32, ptr, ptr, ...) @error_setg_internal(ptr noundef nonnull %errp, ptr noundef nonnull @.str, i32 noundef 279, ptr noundef nonnull @__func__.qcrypto_block_luks_essiv_cipher, ptr noundef nonnull @.str.27, i64 noundef %call) #16
  br label %return

sw.bb13:                                          ; preds = %if.end, %if.end, %if.end
  %call14 = tail call i64 @qcrypto_cipher_get_key_len(i32 noundef 6) #16
  %cmp15 = icmp eq i64 %call, %call14
  br i1 %cmp15, label %return, label %if.else17

if.else17:                                        ; preds = %sw.bb13
  %call18 = tail call i64 @qcrypto_cipher_get_key_len(i32 noundef 7) #16
  %cmp19 = icmp eq i64 %call, %call18
  br i1 %cmp19, label %return, label %if.else21

if.else21:                                        ; preds = %if.else17
  %call22 = tail call i64 @qcrypto_cipher_get_key_len(i32 noundef 8) #16
  %cmp23 = icmp eq i64 %call, %call22
  br i1 %cmp23, label %return, label %if.else25

if.else25:                                        ; preds = %if.else21
  tail call void (ptr, ptr, i32, ptr, ptr, ...) @error_setg_internal(ptr noundef nonnull %errp, ptr noundef nonnull @.str, i32 noundef 297, ptr noundef nonnull @__func__.qcrypto_block_luks_essiv_cipher, ptr noundef nonnull @.str.28, i64 noundef %call) #16
  br label %return

sw.bb26:                                          ; preds = %if.end, %if.end, %if.end
  %call27 = tail call i64 @qcrypto_cipher_get_key_len(i32 noundef 9) #16
  %cmp28 = icmp eq i64 %call, %call27
  br i1 %cmp28, label %return, label %if.else30

if.else30:                                        ; preds = %sw.bb26
  %call31 = tail call i64 @qcrypto_cipher_get_key_len(i32 noundef 10) #16
  %cmp32 = icmp eq i64 %call, %call31
  br i1 %cmp32, label %return, label %if.else34

if.else34:                                        ; preds = %if.else30
  %call35 = tail call i64 @qcrypto_cipher_get_key_len(i32 noundef 11) #16
  %cmp36 = icmp eq i64 %call, %call35
  br i1 %cmp36, label %return, label %if.else38

if.else38:                                        ; preds = %if.else34
  tail call void (ptr, ptr, i32, ptr, ptr, ...) @error_setg_internal(ptr noundef nonnull %errp, ptr noundef nonnull @.str, i32 noundef 315, ptr noundef nonnull @__func__.qcrypto_block_luks_essiv_cipher, ptr noundef nonnull @.str.29, i64 noundef %call) #16
  br label %return

sw.default:                                       ; preds = %if.end
  %call39 = tail call ptr @qapi_enum_lookup(ptr noundef nonnull @QCryptoCipherAlgorithm_lookup, i32 noundef %cipher) #16
  tail call void (ptr, ptr, i32, ptr, ptr, ...) @error_setg_internal(ptr noundef nonnull %errp, ptr noundef nonnull @.str, i32 noundef 321, ptr noundef nonnull @__func__.qcrypto_block_luks_essiv_cipher, ptr noundef nonnull @.str.30, ptr noundef %call39) #16
  br label %return

return:                                           ; preds = %if.else34, %if.else30, %sw.bb26, %if.else21, %if.else17, %sw.bb13, %if.else8, %if.else, %sw.bb, %entry, %sw.default, %if.else38, %if.else25, %if.else12
  %retval.0 = phi i32 [ 0, %sw.default ], [ 0, %if.else38 ], [ 0, %if.else25 ], [ 0, %if.else12 ], [ %cipher, %entry ], [ 0, %sw.bb ], [ 1, %if.else ], [ 2, %if.else8 ], [ 6, %sw.bb13 ], [ 7, %if.else17 ], [ 8, %if.else21 ], [ 9, %sw.bb26 ], [ 10, %if.else30 ], [ 11, %if.else34 ]
  ret i32 %retval.0
}